target datalayout = "e-m:e-p270:32:32-p271:32:32-p272:64:64-i64:64-i128:128-f80:128-n8:16:32:64-S128"
target triple = "x86_64-pc-linux-gnu"

%"class.Imf_3_4::Zip" = type <{ i64, ptr, i32, [4 x i8] }>

@.str.2 = private unnamed_addr constant [33 x i8] c"Integer multiplication overflow.\00", align 1
@_ZTIN7Iex_3_411OverflowExcE = external constant ptr

; Function Attrs: mustprogress nounwind uwtable
define linkonce_odr hidden noundef i64 @_ZNSt14numeric_limitsImE3maxEv() #3 comdat align 2 {
  ret i64 -1
}

; Function Attrs: inlinehint mustprogress uwtable
define linkonce_odr hidden noundef i64 @_ZN7Imf_3_46uiMultImEET_S1_S1_(i64 noundef %0, i64 noundef %1) #2 comdat personality ptr @__gxx_personality_v0 {
  %3 = alloca i64, align 8
  %4 = alloca i64, align 8
  %5 = alloca ptr, align 8
  %6 = alloca i32, align 4
  store i64 %0, ptr %3, align 8, !tbaa !8
  store i64 %1, ptr %4, align 8, !tbaa !8
  br label %7

7:                                                ; preds = %2
  br label %8

8:                                                ; preds = %7
  %9 = load i64, ptr %3, align 8, !tbaa !8
  %10 = icmp ugt i64 %9, 0
  br i1 %10, label %11, label %24

11:                                               ; preds = %8
  %12 = load i64, ptr %4, align 8, !tbaa !8
  %13 = call noundef i64 @_ZNSt14numeric_limitsImE3maxEv() #11
  %14 = load i64, ptr %3, align 8, !tbaa !8
  %15 = udiv i64 %13, %14
  %16 = icmp ugt i64 %12, %15
  br i1 %16, label %17, label %24

17:                                               ; preds = %11
  %18 = call ptr @__cxa_allocate_exception(i64 72) #11
  invoke void @_ZN7Iex_3_411OverflowExcC1EPKc(ptr noundef nonnull align 8 dereferenceable(72) %18, ptr noundef @.str.2)
          to label %19 unwind label %20

19:                                               ; preds = %17
  call void @__cxa_throw(ptr %18, ptr @_ZTIN7Iex_3_411OverflowExcE, ptr @_ZN7Iex_3_411OverflowExcD1Ev) #12
  unreachable

20:                                               ; preds = %17
  %21 = landingpad { ptr, i32 }
          cleanup
  %22 = extractvalue { ptr, i32 } %21, 0
  store ptr %22, ptr %5, align 8
  %23 = extractvalue { ptr, i32 } %21, 1
  store i32 %23, ptr %6, align 4
  call void @__cxa_free_exception(ptr %18) #11
  br label %28

24:                                               ; preds = %11, %8
  %25 = load i64, ptr %3, align 8, !tbaa !8
  %26 = load i64, ptr %4, align 8, !tbaa !8
  %27 = mul i64 %25, %26
  ret i64 %27

28:                                               ; preds = %20
  %29 = load ptr, ptr %5, align 8
  %30 = load i32, ptr %6, align 4
  %31 = insertvalue { ptr, i32 } poison, ptr %29, 0
  %32 = insertvalue { ptr, i32 } %31, i32 %30, 1
  resume { ptr, i32 } %32
}

; Function Attrs: mustprogress uwtable
define hidden void @_ZN7Imf_3_43ZipC2Emmi(ptr noundef nonnull align 8 dereferenceable(20) %0, i64 noundef %1, i64 noundef %2, i32 noundef %3) unnamed_addr #0 align 2 {
  %5 = alloca ptr, align 8
  %6 = alloca i64, align 8
  %7 = alloca i64, align 8
  %8 = alloca i32, align 4
  store ptr %0, ptr %5, align 8, !tbaa !3
  store i64 %1, ptr %6, align 8, !tbaa !8
  store i64 %2, ptr %7, align 8, !tbaa !8
  store i32 %3, ptr %8, align 4, !tbaa !10
  %9 = load ptr, ptr %5, align 8
  %10 = getelementptr inbounds nuw %"class.Imf_3_4::Zip", ptr %9, i32 0, i32 0
  store i64 0, ptr %10, align 8, !tbaa !12
  %11 = getelementptr inbounds nuw %"class.Imf_3_4::Zip", ptr %9, i32 0, i32 1
  store ptr null, ptr %11, align 8, !tbaa !15
  %12 = getelementptr inbounds nuw %"class.Imf_3_4::Zip", ptr %9, i32 0, i32 2
  %13 = load i32, ptr %8, align 4, !tbaa !10
  store i32 %13, ptr %12, align 8, !tbaa !16
  %14 = load i64, ptr %6, align 8, !tbaa !8
  %15 = load i64, ptr %7, align 8, !tbaa !8
  %16 = call noundef i64 @_ZN7Imf_3_46uiMultImEET_S1_S1_(i64 noundef %14, i64 noundef %15)
  %17 = getelementptr inbounds nuw %"class.Imf_3_4::Zip", ptr %9, i32 0, i32 0
  store i64 %16, ptr %17, align 8, !tbaa !12
  %18 = getelementptr inbounds nuw %"class.Imf_3_4::Zip", ptr %9, i32 0, i32 0
  %19 = load i64, ptr %18, align 8, !tbaa !12
  %20 = call noalias noundef nonnull ptr @_Znam(i64 noundef %19) #10
  %21 = getelementptr inbounds nuw %"class.Imf_3_4::Zip", ptr %9, i32 0, i32 1
  store ptr %20, ptr %21, align 8, !tbaa !15
  ret void
}