; Function Attrs: mustprogress uwtable
define hidden void @_ZN7Imf_3_43ZipC2Emmi(ptr noundef nonnull writeonly align 8 captures(none) dereferenceable(20) initializes((0, 20)) %0, i64 noundef %1, i64 noundef %2, i32 noundef %3) unnamed_addr #0 align 2 personality ptr @__gxx_personality_v0 {
  %5 = getelementptr inbounds nuw i8, ptr %0, i64 16
  tail call void @llvm.memset.p0.i64(ptr noundef nonnull align 8 dereferenceable(16) %0, i8 0, i64 16, i1 false)
  store i32 %3, ptr %5, align 8, !tbaa !12
  %.not.i = icmp eq i64 %1, 0
  br i1 %.not.i, label %_ZN7Imf_3_46uiMultImEET_S1_S1_.exit, label %6

6:                                                ; preds = %4
  %mul.i = tail call { i64, i1 } @llvm.umul.with.overflow.i64(i64 %1, i64 %2)
  %mul.ov.i = extractvalue { i64, i1 } %mul.i, 1
  br i1 %mul.ov.i, label %7, label %_ZN7Imf_3_46uiMultImEET_S1_S1_.exit

7:                                                ; preds = %6
  %8 = tail call ptr @__cxa_allocate_exception(i64 72) #14
  invoke void @_ZN7Iex_3_411OverflowExcC1EPKc(ptr noundef nonnull align 8 dereferenceable(72) %8, ptr noundef nonnull @.str.2)
          to label %9 unwind label %10

9:                                                ; preds = %7
  tail call void @__cxa_throw(ptr nonnull %8, ptr nonnull @_ZTIN7Iex_3_411OverflowExcE, ptr nonnull @_ZN7Iex_3_411OverflowExcD1Ev) #15
  unreachable

10:                                               ; preds = %7
  %11 = landingpad { ptr, i32 }
          cleanup
  tail call void @__cxa_free_exception(ptr nonnull %8) #14
  resume { ptr, i32 } %11

_ZN7Imf_3_46uiMultImEET_S1_S1_.exit:              ; preds = %4, %6
  %12 = getelementptr inbounds nuw i8, ptr %0, i64 8
  %13 = mul i64 %2, %1
  store i64 %13, ptr %0, align 8, !tbaa !3
  %14 = tail call noalias noundef nonnull ptr @_Znam(i64 noundef %13) #13
  store ptr %14, ptr %12, align 8, !tbaa !11
  ret void
}